; ModuleID = '3/2597.c'
source_filename = "3/2597.c"
target datalayout = "e-m:e-p270:32:32-p271:32:32-p272:64:64-i64:64-f80:128-n8:16:32:64-S128"
target triple = "x86_64-pc-linux-gnu"

@.str = private unnamed_addr constant [6 x i8] c"%d %d\00", align 1
@.str.1 = private unnamed_addr constant [3 x i8] c"%d\00", align 1
@.str.2 = private unnamed_addr constant [3 x i8] c"no\00", align 1
@.str.3 = private unnamed_addr constant [4 x i8] c"yes\00", align 1

; Function Attrs: noinline nounwind uwtable
define dso_local i32 @main() #0 {
  %1 = alloca i32, align 4
  %2 = alloca i32, align 4
  %3 = alloca i32, align 4
  %4 = alloca [1000 x i32], align 16
  %5 = alloca i32, align 4
  %6 = alloca i32, align 4
  %7 = alloca i32, align 4
  %8 = alloca i32, align 4
  %9 = alloca i32, align 4
  %10 = alloca i32, align 4
  store i32 0, i32* %1, align 4
  store i32 0, i32* %7, align 4
  %11 = call i32 (i8*, ...) @__isoc99_scanf(i8* getelementptr inbounds ([6 x i8], [6 x i8]* @.str, i64 0, i64 0), i32* %2, i32* %3)
  store i32 0, i32* %8, align 4
  br label %12

12:                                               ; preds = %21, %0
  %13 = load i32, i32* %8, align 4
  %14 = load i32, i32* %2, align 4
  %15 = icmp slt i32 %13, %14
  br i1 %15, label %16, label %24

16:                                               ; preds = %12
  %17 = load i32, i32* %8, align 4
  %18 = sext i32 %17 to i64
  %19 = getelementptr inbounds [1000 x i32], [1000 x i32]* %4, i64 0, i64 %18
  %20 = call i32 (i8*, ...) @__isoc99_scanf(i8* getelementptr inbounds ([3 x i8], [3 x i8]* @.str.1, i64 0, i64 0), i32* %19)
  br label %21

21:                                               ; preds = %16
  %22 = load i32, i32* %8, align 4
  %23 = add nsw i32 %22, 1
  store i32 %23, i32* %8, align 4
  br label %12

24:                                               ; preds = %12
  store i32 0, i32* %9, align 4
  br label %25

25:                                               ; preds = %56, %24
  %26 = load i32, i32* %9, align 4
  %27 = load i32, i32* %2, align 4
  %28 = icmp slt i32 %26, %27
  br i1 %28, label %29, label %59

29:                                               ; preds = %25
  store i32 1, i32* %10, align 4
  br label %30

30:                                               ; preds = %52, %29
  %31 = load i32, i32* %10, align 4
  %32 = load i32, i32* %2, align 4
  %33 = icmp sle i32 %31, %32
  br i1 %33, label %34, label %55

34:                                               ; preds = %30
  %35 = load i32, i32* %9, align 4
  %36 = sext i32 %35 to i64
  %37 = getelementptr inbounds [1000 x i32], [1000 x i32]* %4, i64 0, i64 %36
  %38 = load i32, i32* %37, align 4
  store i32 %38, i32* %5, align 4
  %39 = load i32, i32* %10, align 4
  %40 = sext i32 %39 to i64
  %41 = getelementptr inbounds [1000 x i32], [1000 x i32]* %4, i64 0, i64 %40
  %42 = load i32, i32* %41, align 4
  store i32 %42, i32* %6, align 4
  %43 = load i32, i32* %5, align 4
  %44 = load i32, i32* %6, align 4
  %45 = add nsw i32 %43, %44
  %46 = load i32, i32* %3, align 4
  %47 = icmp eq i32 %45, %46
  br i1 %47, label %48, label %51

48:                                               ; preds = %34
  %49 = load i32, i32* %7, align 4
  %50 = add nsw i32 %49, 1
  store i32 %50, i32* %7, align 4
  br label %51

51:                                               ; preds = %48, %34
  br label %52

52:                                               ; preds = %51
  %53 = load i32, i32* %10, align 4
  %54 = add nsw i32 %53, 1
  store i32 %54, i32* %10, align 4
  br label %30

55:                                               ; preds = %30
  br label %56

56:                                               ; preds = %55
  %57 = load i32, i32* %9, align 4
  %58 = add nsw i32 %57, 1
  store i32 %58, i32* %9, align 4
  br label %25

59:                                               ; preds = %25
  %60 = load i32, i32* %7, align 4
  %61 = icmp eq i32 %60, 0
  br i1 %61, label %62, label %64

62:                                               ; preds = %59
  %63 = call i32 (i8*, ...) @printf(i8* getelementptr inbounds ([3 x i8], [3 x i8]* @.str.2, i64 0, i64 0))
  br label %66

64:                                               ; preds = %59
  %65 = call i32 (i8*, ...) @printf(i8* getelementptr inbounds ([4 x i8], [4 x i8]* @.str.3, i64 0, i64 0))
  br label %66

66:                                               ; preds = %64, %62
  ret i32 0
}

declare dso_local i32 @__isoc99_scanf(i8*, ...) #1

declare dso_local i32 @printf(i8*, ...) #1


!llvm.module.flags = !{!0}
!llvm.ident = !{!1}

!0 = !{i32 1, !"wchar_size", i32 4}
!1 = !{!"clang version 10.0.0-4ubuntu1 "}
